target datalayout = "e-m:e-p270:32:32-p271:32:32-p272:64:64-i64:64-i128:128-f80:128-n8:16:32:64-S128"
target triple = "x86_64-pc-linux-gnu"

; Function Attrs: mustprogress nounwind uwtable
define linkonce_odr hidden noundef double @_ZNSt14numeric_limitsIdE8infinityEv() #5 comdat align 2 {
  ret double 0x7FF0000000000000
}

; Function Attrs: mustprogress nounwind uwtable
define noundef double @_ZNK6casadi5Conic14get_default_inEx(ptr noundef nonnull align 8 dereferenceable(1520) %0, i64 noundef %1) unnamed_addr #5 align 2 {
  %3 = alloca double, align 8
  %4 = alloca ptr, align 8
  %5 = alloca i64, align 8
  store ptr %0, ptr %4, align 8, !tbaa !53
  store i64 %1, ptr %5, align 8, !tbaa !58
  %6 = load i64, ptr %5, align 8, !tbaa !58
  switch i64 %6, label %12 [
    i64 5, label %7
    i64 3, label %7
    i64 6, label %10
    i64 4, label %10
  ]

7:                                                ; preds = %2, %2
  %8 = call noundef double @_ZNSt14numeric_limitsIdE8infinityEv() #3
  %9 = fneg double %8
  store double %9, ptr %3, align 8
  br label %13

10:                                               ; preds = %2, %2
  %11 = call noundef double @_ZNSt14numeric_limitsIdE8infinityEv() #3
  store double %11, ptr %3, align 8
  br label %13

12:                                               ; preds = %2
  store double 0.000000e+00, ptr %3, align 8
  br label %13

13:                                               ; preds = %12, %10, %7
  %14 = load double, ptr %3, align 8
  ret double %14
}