; Function Attrs: mustprogress nofree norecurse nosync nounwind willreturn memory(none) uwtable
define noundef double @_ZNK6casadi5Conic14get_default_inEx(ptr nonnull readnone align 8 captures(none) %0, i64 noundef %1) unnamed_addr #8 align 2 {
  %switch.tableidx = add i64 %1, -3
  %3 = icmp ult i64 %switch.tableidx, 4
  br i1 %3, label %switch.lookup, label %4

switch.lookup:                                    ; preds = %2
  %switch.gep = getelementptr inbounds nuw [4 x double], ptr @switch.table._ZNK6casadi5Conic14get_default_inEx, i64 0, i64 %switch.tableidx
  %switch.load = load double, ptr %switch.gep, align 8
  br label %4

4:                                                ; preds = %switch.lookup, %2
  %.0 = phi double [ 0.000000e+00, %2 ], [ %switch.load, %switch.lookup ]
  ret double %.0
}